target datalayout = "e-m:e-p270:32:32-p271:32:32-p272:64:64-i64:64-i128:128-f80:128-n8:16:32:64-S128"
target triple = "x86_64-pc-linux-gnu"

%struct.job_record = type { i32, ptr, ptr, ptr, ptr, i16, i32, i32, i32, ptr, i32, ptr, ptr, i16, ptr, double, i64, ptr, ptr, ptr, ptr, ptr, ptr, i32, ptr, i32, i64, i64, i32, i32, ptr, i16, i64, i64, i8, i32, ptr, ptr, ptr, ptr, ptr, ptr, ptr, ptr, i32, ptr, ptr, i32, ptr, i32, ptr, i32, ptr, i32, ptr, ptr, ptr, ptr, ptr, ptr, i32, i16, i64, ptr, ptr, ptr, ptr, %struct.acct_policy_limit_set_t, i16, ptr, ptr, ptr, ptr, ptr, i32, ptr, ptr, ptr, ptr, ptr, i32, i32, ptr, ptr, ptr, i16, ptr, ptr, i8, ptr, ptr, i64, i64, i8, i32, i32, i8, i32, ptr, i32, i64, i32, ptr, ptr, ptr, i8, i16, i64, i32, ptr, ptr, ptr, ptr, ptr, i16, i32, ptr, ptr, ptr, ptr, i32, ptr, i32, i16, i64, ptr, i32, i32, ptr, i64, ptr, ptr, i64, i32, i32, i64, i32, i32, ptr, ptr, ptr, ptr, ptr, ptr, ptr, ptr, ptr, ptr, ptr, ptr, i32, ptr, i16, i16, i16, i16, ptr, i32, i32, i8, i64 }
%struct.acct_policy_limit_set_t = type { i16, i16, ptr }

@hash_table_size = internal global i32 0, align 4
@job_hash = internal global ptr null, align 8

; Function Attrs: nounwind uwtable
define dso_local ptr @find_job_record(i32 noundef %0) #0 {
  %2 = alloca ptr, align 8
  %3 = alloca i32, align 4
  %4 = alloca ptr, align 8
  %5 = alloca i32, align 4
  store i32 %0, ptr %3, align 4
  call void @llvm.lifetime.start.p0(i64 8, ptr %4) #13
  %6 = load ptr, ptr @job_hash, align 8
  %7 = load i32, ptr %3, align 4
  %8 = load i32, ptr @hash_table_size, align 4
  %9 = urem i32 %7, %8
  %10 = zext i32 %9 to i64
  %11 = getelementptr inbounds nuw ptr, ptr %6, i64 %10
  %12 = load ptr, ptr %11, align 8
  store ptr %12, ptr %4, align 8
  br label %13

13:                                               ; preds = %24, %1
  %14 = load ptr, ptr %4, align 8
  %15 = icmp ne ptr %14, null
  br i1 %15, label %16, label %28

16:                                               ; preds = %13
  %17 = load ptr, ptr %4, align 8
  %18 = getelementptr inbounds nuw %struct.job_record, ptr %17, i32 0, i32 53
  %19 = load i32, ptr %18, align 8
  %20 = load i32, ptr %3, align 4
  %21 = icmp eq i32 %19, %20
  br i1 %21, label %22, label %24

22:                                               ; preds = %16
  %23 = load ptr, ptr %4, align 8
  store ptr %23, ptr %2, align 8
  store i32 1, ptr %5, align 4
  br label %29

24:                                               ; preds = %16
  %25 = load ptr, ptr %4, align 8
  %26 = getelementptr inbounds nuw %struct.job_record, ptr %25, i32 0, i32 55
  %27 = load ptr, ptr %26, align 8
  store ptr %27, ptr %4, align 8
  br label %13, !llvm.loop !14

28:                                               ; preds = %13
  store ptr null, ptr %2, align 8
  store i32 1, ptr %5, align 4
  br label %29

29:                                               ; preds = %28, %22
  call void @llvm.lifetime.end.p0(i64 8, ptr %4) #13
  %30 = load ptr, ptr %2, align 8
  ret ptr %30
}

; Function Attrs: nounwind uwtable
define dso_local i32 @job_alloc_info(i32 noundef %0, i32 noundef %1, ptr noundef %2) #0 {
  %4 = alloca i32, align 4
  %5 = alloca i32, align 4
  %6 = alloca i32, align 4
  %7 = alloca ptr, align 8
  %8 = alloca ptr, align 8
  %9 = alloca i32, align 4
  store i32 %0, ptr %5, align 4
  store i32 %1, ptr %6, align 4
  store ptr %2, ptr %7, align 8
  call void @llvm.lifetime.start.p0(i64 8, ptr %8) #13
  %10 = load i32, ptr %6, align 4
  %11 = call ptr @find_job_record(i32 noundef %10)
  store ptr %11, ptr %8, align 8
  %12 = load ptr, ptr %8, align 8
  %13 = icmp eq ptr %12, null
  br i1 %13, label %14, label %15

14:                                               ; preds = %3
  store i32 2017, ptr %4, align 4
  store i32 1, ptr %9, align 4
  br label %25

15:                                               ; preds = %3
  %16 = load ptr, ptr %7, align 8
  %17 = icmp ne ptr %16, null
  br i1 %17, label %18, label %21

18:                                               ; preds = %15
  %19 = load ptr, ptr %8, align 8
  %20 = load ptr, ptr %7, align 8
  store ptr %19, ptr %20, align 8
  br label %21

21:                                               ; preds = %18, %15
  %22 = load i32, ptr %5, align 4
  %23 = load ptr, ptr %8, align 8
  %24 = call i32 @job_alloc_info_ptr(i32 noundef %22, ptr noundef %23)
  store i32 %24, ptr %4, align 4
  store i32 1, ptr %9, align 4
  br label %25

25:                                               ; preds = %21, %14
  call void @llvm.lifetime.end.p0(i64 8, ptr %8) #13
  %26 = load i32, ptr %4, align 4
  ret i32 %26
}