; Function Attrs: nounwind uwtable
define dso_local range(i32 0, 2025) i32 @job_alloc_info(i32 noundef %0, i32 noundef %1, ptr noundef writeonly captures(address_is_null) %2) local_unnamed_addr #0 {
  %4 = load ptr, ptr @job_hash, align 8
  %5 = load i32, ptr @hash_table_size, align 4
  %6 = urem i32 %1, %5
  %7 = zext i32 %6 to i64
  %8 = getelementptr inbounds nuw ptr, ptr %4, i64 %7
  %.07.i = load ptr, ptr %8, align 8
  %.not8.i = icmp eq ptr %.07.i, null
  br i1 %.not8.i, label %find_job_record.exit.thread, label %.lr.ph.i

.lr.ph.i:                                         ; preds = %3, %12
  %.09.i = phi ptr [ %.0.i, %12 ], [ %.07.i, %3 ]
  %9 = getelementptr inbounds nuw i8, ptr %.09.i, i64 392
  %10 = load i32, ptr %9, align 8
  %11 = icmp eq i32 %10, %1
  br i1 %11, label %find_job_record.exit, label %12

12:                                               ; preds = %.lr.ph.i
  %13 = getelementptr inbounds nuw i8, ptr %.09.i, i64 408
  %.0.i = load ptr, ptr %13, align 8
  %.not.i = icmp eq ptr %.0.i, null
  br i1 %.not.i, label %find_job_record.exit.thread, label %.lr.ph.i, !llvm.loop !14

find_job_record.exit:                             ; preds = %.lr.ph.i
  %.not = icmp eq ptr %2, null
  br i1 %.not, label %15, label %14

14:                                               ; preds = %find_job_record.exit
  store ptr %.09.i, ptr %2, align 8
  br label %15

15:                                               ; preds = %14, %find_job_record.exit
  %16 = tail call i32 @job_alloc_info_ptr(i32 noundef %0, ptr noundef nonnull %.09.i)
  br label %find_job_record.exit.thread

find_job_record.exit.thread:                      ; preds = %12, %3, %15
  %.0 = phi i32 [ %16, %15 ], [ 2017, %3 ], [ 2017, %12 ]
  ret i32 %.0
}